; Function Attrs: mustprogress uwtable
define void @_ZN5arrow6TensorC2ERKSt10shared_ptrINS_8DataTypeEERKS1_INS_6BufferEERKSt6vectorIlSaIlEE(ptr noundef nonnull align 8 dereferenceable(112) %this, ptr nocapture noundef nonnull readonly align 8 dereferenceable(16) %type, ptr nocapture noundef nonnull readonly align 8 dereferenceable(16) %data, ptr nocapture noundef nonnull readonly align 8 dereferenceable(24) %shape) unnamed_addr #0 align 2 personality ptr @__gxx_personality_v0 {
entry:
  %ref.tmp = alloca %"class.std::vector.2", align 8
  %ref.tmp2 = alloca %"class.std::vector.10", align 8
  call void @llvm.memset.p0.i64(ptr noundef nonnull align 8 dereferenceable(24) %ref.tmp, i8 0, i64 24, i1 false)
  call void @llvm.memset.p0.i64(ptr noundef nonnull align 8 dereferenceable(24) %ref.tmp2, i8 0, i64 24, i1 false)
  invoke void @_ZN5arrow6TensorC2ERKSt10shared_ptrINS_8DataTypeEERKS1_INS_6BufferEERKSt6vectorIlSaIlEESE_RKSA_INSt7__cxx1112basic_stringIcSt11char_traitsIcESaIcEEESaISK_EE(ptr noundef nonnull align 8 dereferenceable(112) %this, ptr noundef nonnull align 8 dereferenceable(16) %type, ptr noundef nonnull align 8 dereferenceable(16) %data, ptr noundef nonnull align 8 dereferenceable(24) %shape, ptr noundef nonnull align 8 dereferenceable(24) %ref.tmp, ptr noundef nonnull align 8 dereferenceable(24) %ref.tmp2)
          to label %invoke.cont unwind label %_ZNSt6vectorIlSaIlEED2Ev.exit7

invoke.cont:                                      ; preds = %entry
  %0 = load ptr, ptr %ref.tmp2, align 8
  %_M_finish.i = getelementptr inbounds i8, ptr %ref.tmp2, i64 8
  %1 = load ptr, ptr %_M_finish.i, align 8
  %cmp.not3.i.i.i.i = icmp eq ptr %0, %1
  br i1 %cmp.not3.i.i.i.i, label %invoke.cont.i, label %for.body.i.i.i.i

for.body.i.i.i.i:                                 ; preds = %invoke.cont, %for.body.i.i.i.i
  %__first.addr.04.i.i.i.i = phi ptr [ %incdec.ptr.i.i.i.i, %for.body.i.i.i.i ], [ %0, %invoke.cont ]
  call void @_ZNSt7__cxx1112basic_stringIcSt11char_traitsIcESaIcEED1Ev(ptr noundef nonnull align 8 dereferenceable(32) %__first.addr.04.i.i.i.i) #22
  %incdec.ptr.i.i.i.i = getelementptr inbounds i8, ptr %__first.addr.04.i.i.i.i, i64 32
  %cmp.not.i.i.i.i = icmp eq ptr %incdec.ptr.i.i.i.i, %1
  br i1 %cmp.not.i.i.i.i, label %invoke.contthread-pre-split.i, label %for.body.i.i.i.i, !llvm.loop !47

invoke.contthread-pre-split.i:                    ; preds = %for.body.i.i.i.i
  %.pr.i = load ptr, ptr %ref.tmp2, align 8
  br label %invoke.cont.i

invoke.cont.i:                                    ; preds = %invoke.contthread-pre-split.i, %invoke.cont
  %2 = phi ptr [ %.pr.i, %invoke.contthread-pre-split.i ], [ %0, %invoke.cont ]
  %tobool.not.i.i.i = icmp eq ptr %2, null
  br i1 %tobool.not.i.i.i, label %_ZNSt6vectorIlSaIlEED2Ev.exit, label %if.then.i.i.i

if.then.i.i.i:                                    ; preds = %invoke.cont.i
  call void @_ZdlPv(ptr noundef nonnull %2) #21
  br label %_ZNSt6vectorIlSaIlEED2Ev.exit

_ZNSt6vectorIlSaIlEED2Ev.exit:                    ; preds = %if.then.i.i.i, %invoke.cont.i
  ret void

_ZNSt6vectorIlSaIlEED2Ev.exit7:                   ; preds = %entry
  %3 = landingpad { ptr, i32 }
          cleanup
  call void @_ZNSt6vectorINSt7__cxx1112basic_stringIcSt11char_traitsIcESaIcEEESaIS5_EED2Ev(ptr noundef nonnull align 8 dereferenceable(24) %ref.tmp2) #22
  resume { ptr, i32 } %3
}